; ModuleID = '42/776.cpp'
source_filename = "42/776.cpp"
target datalayout = "e-m:e-p270:32:32-p271:32:32-p272:64:64-i64:64-f80:128-n8:16:32:64-S128"
target triple = "x86_64-pc-linux-gnu"

%"class.std::ios_base::Init" = type { i8 }
%"class.std::basic_istream" = type { i32 (...)**, i64, %"class.std::basic_ios" }
%"class.std::basic_ios" = type { %"class.std::ios_base", %"class.std::basic_ostream"*, i8, i8, %"class.std::basic_streambuf"*, %"class.std::ctype"*, %"class.std::num_put"*, %"class.std::num_get"* }
%"class.std::ios_base" = type { i32 (...)**, i64, i64, i32, i32, i32, %"struct.std::ios_base::_Callback_list"*, %"struct.std::ios_base::_Words", [8 x %"struct.std::ios_base::_Words"], i32, %"struct.std::ios_base::_Words"*, %"class.std::locale" }
%"struct.std::ios_base::_Callback_list" = type { %"struct.std::ios_base::_Callback_list"*, void (i32, %"class.std::ios_base"*, i32)*, i32, i32 }
%"struct.std::ios_base::_Words" = type { i8*, i64 }
%"class.std::locale" = type { %"class.std::locale::_Impl"* }
%"class.std::locale::_Impl" = type { i32, %"class.std::locale::facet"**, i64, %"class.std::locale::facet"**, i8** }
%"class.std::locale::facet" = type <{ i32 (...)**, i32, [4 x i8] }>
%"class.std::basic_ostream" = type { i32 (...)**, %"class.std::basic_ios" }
%"class.std::basic_streambuf" = type { i32 (...)**, i8*, i8*, i8*, i8*, i8*, i8*, %"class.std::locale" }
%"class.std::ctype" = type <{ %"class.std::locale::facet.base", [4 x i8], %struct.__locale_struct*, i8, [7 x i8], i32*, i32*, i16*, i8, [256 x i8], [256 x i8], i8, [6 x i8] }>
%"class.std::locale::facet.base" = type <{ i32 (...)**, i32 }>
%struct.__locale_struct = type { [13 x %struct.__locale_data*], i16*, i32*, i32*, [13 x i8*] }
%struct.__locale_data = type opaque
%"class.std::num_put" = type { %"class.std::locale::facet.base", [4 x i8] }
%"class.std::num_get" = type { %"class.std::locale::facet.base", [4 x i8] }

@_ZStL8__ioinit = internal global %"class.std::ios_base::Init" zeroinitializer, align 1
@__dso_handle = external hidden global i8
@_ZSt3cin = external dso_local global %"class.std::basic_istream", align 8
@_ZSt4cout = external dso_local global %"class.std::basic_ostream", align 8
@llvm.global_ctors = appending global [1 x { i32, void ()*, i8* }] [{ i32, void ()*, i8* } { i32 65535, void ()* @_GLOBAL__sub_I_776.cpp, i8* null }]

; Function Attrs: noinline uwtable
define internal void @__cxx_global_var_init() #0 section ".text.startup" {
  call void @_ZNSt8ios_base4InitC1Ev(%"class.std::ios_base::Init"* @_ZStL8__ioinit)
  %1 = call i32 @__cxa_atexit(void (i8*)* bitcast (void (%"class.std::ios_base::Init"*)* @_ZNSt8ios_base4InitD1Ev to void (i8*)*), i8* getelementptr inbounds (%"class.std::ios_base::Init", %"class.std::ios_base::Init"* @_ZStL8__ioinit, i32 0, i32 0), i8* @__dso_handle) #3
  ret void
}

declare dso_local void @_ZNSt8ios_base4InitC1Ev(%"class.std::ios_base::Init"*) unnamed_addr #1

; Function Attrs: nounwind
declare dso_local void @_ZNSt8ios_base4InitD1Ev(%"class.std::ios_base::Init"*) unnamed_addr #2

; Function Attrs: nounwind
declare dso_local i32 @__cxa_atexit(void (i8*)*, i8*, i8*) #3

; Function Attrs: noinline norecurse uwtable
define dso_local i32 @main() #4 {
  %1 = alloca i32, align 4
  %2 = alloca i32, align 4
  %3 = alloca i32, align 4
  %4 = alloca i32, align 4
  %5 = alloca i8*, align 8
  %6 = alloca i64, align 8
  %7 = alloca i32, align 4
  store i32 0, i32* %1, align 4
  store i32 0, i32* %4, align 4
  %8 = call dereferenceable(280) %"class.std::basic_istream"* @_ZNSirsERi(%"class.std::basic_istream"* @_ZSt3cin, i32* dereferenceable(4) %2)
  %9 = load i32, i32* %2, align 4
  %10 = zext i32 %9 to i64
  %11 = call i8* @llvm.stacksave()
  store i8* %11, i8** %5, align 8
  %12 = alloca i32, i64 %10, align 16
  store i64 %10, i64* %6, align 8
  store i32 0, i32* %3, align 4
  br label %13

13:                                               ; preds = %22, %0
  %14 = load i32, i32* %3, align 4
  %15 = load i32, i32* %2, align 4
  %16 = icmp slt i32 %14, %15
  br i1 %16, label %17, label %25

17:                                               ; preds = %13
  %18 = load i32, i32* %3, align 4
  %19 = sext i32 %18 to i64
  %20 = getelementptr inbounds i32, i32* %12, i64 %19
  %21 = call dereferenceable(280) %"class.std::basic_istream"* @_ZNSirsERi(%"class.std::basic_istream"* @_ZSt3cin, i32* dereferenceable(4) %20)
  br label %22

22:                                               ; preds = %17
  %23 = load i32, i32* %3, align 4
  %24 = add nsw i32 %23, 1
  store i32 %24, i32* %3, align 4
  br label %13

25:                                               ; preds = %13
  %26 = call dereferenceable(280) %"class.std::basic_istream"* @_ZNSirsERi(%"class.std::basic_istream"* @_ZSt3cin, i32* dereferenceable(4) %7)
  store i32 0, i32* %3, align 4
  br label %27

27:                                               ; preds = %43, %25
  %28 = load i32, i32* %3, align 4
  %29 = load i32, i32* %2, align 4
  %30 = icmp slt i32 %28, %29
  br i1 %30, label %31, label %46

31:                                               ; preds = %27
  %32 = load i32, i32* %3, align 4
  %33 = sext i32 %32 to i64
  %34 = getelementptr inbounds i32, i32* %12, i64 %33
  %35 = load i32, i32* %34, align 4
  %36 = load i32, i32* %7, align 4
  %37 = icmp eq i32 %35, %36
  br i1 %37, label %38, label %42

38:                                               ; preds = %31
  %39 = load i32, i32* %3, align 4
  %40 = sext i32 %39 to i64
  %41 = getelementptr inbounds i32, i32* %12, i64 %40
  store i32 1000, i32* %41, align 4
  br label %42

42:                                               ; preds = %38, %31
  br label %43

43:                                               ; preds = %42
  %44 = load i32, i32* %3, align 4
  %45 = add nsw i32 %44, 1
  store i32 %45, i32* %3, align 4
  br label %27

46:                                               ; preds = %27
  store i32 0, i32* %3, align 4
  br label %47

47:                                               ; preds = %77, %46
  %48 = load i32, i32* %3, align 4
  %49 = load i32, i32* %2, align 4
  %50 = icmp slt i32 %48, %49
  br i1 %50, label %51, label %80

51:                                               ; preds = %47
  %52 = load i32, i32* %3, align 4
  %53 = sext i32 %52 to i64
  %54 = getelementptr inbounds i32, i32* %12, i64 %53
  %55 = load i32, i32* %54, align 4
  %56 = icmp ne i32 %55, 1000
  br i1 %56, label %57, label %76

57:                                               ; preds = %51
  %58 = load i32, i32* %4, align 4
  %59 = icmp eq i32 %58, 0
  br i1 %59, label %60, label %66

60:                                               ; preds = %57
  %61 = load i32, i32* %3, align 4
  %62 = sext i32 %61 to i64
  %63 = getelementptr inbounds i32, i32* %12, i64 %62
  %64 = load i32, i32* %63, align 4
  %65 = call dereferenceable(272) %"class.std::basic_ostream"* @_ZNSolsEi(%"class.std::basic_ostream"* @_ZSt4cout, i32 %64)
  br label %73

66:                                               ; preds = %57
  %67 = call dereferenceable(272) %"class.std::basic_ostream"* @_ZStlsISt11char_traitsIcEERSt13basic_ostreamIcT_ES5_c(%"class.std::basic_ostream"* dereferenceable(272) @_ZSt4cout, i8 signext 32)
  %68 = load i32, i32* %3, align 4
  %69 = sext i32 %68 to i64
  %70 = getelementptr inbounds i32, i32* %12, i64 %69
  %71 = load i32, i32* %70, align 4
  %72 = call dereferenceable(272) %"class.std::basic_ostream"* @_ZNSolsEi(%"class.std::basic_ostream"* %67, i32 %71)
  br label %73

73:                                               ; preds = %66, %60
  %74 = load i32, i32* %4, align 4
  %75 = add nsw i32 %74, 1
  store i32 %75, i32* %4, align 4
  br label %76

76:                                               ; preds = %73, %51
  br label %77

77:                                               ; preds = %76
  %78 = load i32, i32* %3, align 4
  %79 = add nsw i32 %78, 1
  store i32 %79, i32* %3, align 4
  br label %47

80:                                               ; preds = %47
  store i32 0, i32* %1, align 4
  %81 = load i8*, i8** %5, align 8
  call void @llvm.stackrestore(i8* %81)
  %82 = load i32, i32* %1, align 4
  ret i32 %82
}

declare dso_local dereferenceable(280) %"class.std::basic_istream"* @_ZNSirsERi(%"class.std::basic_istream"*, i32* dereferenceable(4)) #1

; Function Attrs: nounwind
declare i8* @llvm.stacksave() #3

declare dso_local dereferenceable(272) %"class.std::basic_ostream"* @_ZNSolsEi(%"class.std::basic_ostream"*, i32) #1

declare dso_local dereferenceable(272) %"class.std::basic_ostream"* @_ZStlsISt11char_traitsIcEERSt13basic_ostreamIcT_ES5_c(%"class.std::basic_ostream"* dereferenceable(272), i8 signext) #1

; Function Attrs: nounwind
declare void @llvm.stackrestore(i8*) #3

; Function Attrs: noinline uwtable
define internal void @_GLOBAL__sub_I_776.cpp() #0 section ".text.startup" {
  call void @__cxx_global_var_init()
  ret void
}


!llvm.module.flags = !{!0}
!llvm.ident = !{!1}

!0 = !{i32 1, !"wchar_size", i32 4}
!1 = !{!"clang version 10.0.0-4ubuntu1 "}
